target datalayout = "e-m:e-p270:32:32-p271:32:32-p272:64:64-i64:64-i128:128-f80:128-n8:16:32:64-S128"
target triple = "x86_64-pc-linux-gnu"

; Function Attrs: nounwind uwtable
define internal void @chrRangeFromJpeg16_c(ptr noundef %0, ptr noundef %1, i32 noundef %2, i32 noundef %3, i64 noundef %4) #0 {
  %6 = alloca ptr, align 8
  %7 = alloca ptr, align 8
  %8 = alloca i32, align 4
  %9 = alloca i32, align 4
  %10 = alloca i64, align 8
  %11 = alloca i32, align 4
  %12 = alloca ptr, align 8
  %13 = alloca ptr, align 8
  store ptr %0, ptr %6, align 8, !tbaa !104
  store ptr %1, ptr %7, align 8, !tbaa !104
  store i32 %2, ptr %8, align 4, !tbaa !14
  store i32 %3, ptr %9, align 4, !tbaa !14
  store i64 %4, ptr %10, align 8, !tbaa !105
  call void @llvm.lifetime.start.p0(i64 4, ptr %11) #11
  call void @llvm.lifetime.start.p0(i64 8, ptr %12) #11
  %14 = load ptr, ptr %6, align 8, !tbaa !104
  store ptr %14, ptr %12, align 8, !tbaa !12
  call void @llvm.lifetime.start.p0(i64 8, ptr %13) #11
  %15 = load ptr, ptr %7, align 8, !tbaa !104
  store ptr %15, ptr %13, align 8, !tbaa !12
  store i32 0, ptr %11, align 4, !tbaa !14
  br label %16

16:                                               ; preds = %55, %5
  %17 = load i32, ptr %11, align 4, !tbaa !14
  %18 = load i32, ptr %8, align 4, !tbaa !14
  %19 = icmp slt i32 %17, %18
  br i1 %19, label %20, label %58

20:                                               ; preds = %16
  %21 = load ptr, ptr %12, align 8, !tbaa !12
  %22 = load i32, ptr %11, align 4, !tbaa !14
  %23 = sext i32 %22 to i64
  %24 = getelementptr inbounds i32, ptr %21, i64 %23
  %25 = load i32, ptr %24, align 4, !tbaa !14
  %26 = sext i32 %25 to i64
  %27 = load i32, ptr %9, align 4, !tbaa !14
  %28 = zext i32 %27 to i64
  %29 = mul nsw i64 %26, %28
  %30 = load i64, ptr %10, align 8, !tbaa !105
  %31 = add nsw i64 %29, %30
  %32 = ashr i64 %31, 18
  %33 = trunc i64 %32 to i32
  %34 = load ptr, ptr %12, align 8, !tbaa !12
  %35 = load i32, ptr %11, align 4, !tbaa !14
  %36 = sext i32 %35 to i64
  %37 = getelementptr inbounds i32, ptr %34, i64 %36
  store i32 %33, ptr %37, align 4, !tbaa !14
  %38 = load ptr, ptr %13, align 8, !tbaa !12
  %39 = load i32, ptr %11, align 4, !tbaa !14
  %40 = sext i32 %39 to i64
  %41 = getelementptr inbounds i32, ptr %38, i64 %40
  %42 = load i32, ptr %41, align 4, !tbaa !14
  %43 = sext i32 %42 to i64
  %44 = load i32, ptr %9, align 4, !tbaa !14
  %45 = zext i32 %44 to i64
  %46 = mul nsw i64 %43, %45
  %47 = load i64, ptr %10, align 8, !tbaa !105
  %48 = add nsw i64 %46, %47
  %49 = ashr i64 %48, 18
  %50 = trunc i64 %49 to i32
  %51 = load ptr, ptr %13, align 8, !tbaa !12
  %52 = load i32, ptr %11, align 4, !tbaa !14
  %53 = sext i32 %52 to i64
  %54 = getelementptr inbounds i32, ptr %51, i64 %53
  store i32 %50, ptr %54, align 4, !tbaa !14
  br label %55

55:                                               ; preds = %20
  %56 = load i32, ptr %11, align 4, !tbaa !14
  %57 = add nsw i32 %56, 1
  store i32 %57, ptr %11, align 4, !tbaa !14
  br label %16, !llvm.loop !111

58:                                               ; preds = %16
  call void @llvm.lifetime.end.p0(i64 8, ptr %13) #11
  call void @llvm.lifetime.end.p0(i64 8, ptr %12) #11
  call void @llvm.lifetime.end.p0(i64 4, ptr %11) #11
  ret void
}